target datalayout = "e-m:e-p270:32:32-p271:32:32-p272:64:64-i64:64-i128:128-f80:128-n8:16:32:64-S128"
target triple = "x86_64-pc-linux-gnu"

%"class.std::mutex" = type { %"class.std::__mutex_base" }
%"class.std::__mutex_base" = type { %union.pthread_mutex_t }
%union.pthread_mutex_t = type { %struct.__pthread_mutex_s }
%struct.__pthread_mutex_s = type { i32, i32, i32, i32, i32, i16, i16, %struct.__pthread_internal_list }
%struct.__pthread_internal_list = type { ptr, ptr }
%"class.std::condition_variable" = type { %"class.std::__condvar" }
%"class.std::__condvar" = type { %union.pthread_cond_t }
%union.pthread_cond_t = type { %struct.__pthread_cond_s }
%struct.__pthread_cond_s = type { %union.__atomic_wide_counter, %union.__atomic_wide_counter, [2 x i32], [2 x i32], i32, i32, [2 x i32] }
%union.__atomic_wide_counter = type { i64 }
%"class.llvm::parallel::TaskGroup" = type <{ %"class.llvm::parallel::detail::Latch", i8, [7 x i8] }>
%"class.llvm::parallel::detail::Latch" = type { i32, %"class.std::mutex", %"class.std::condition_variable" }

@_ZN4llvm8parallel8strategyE = global { i32, i8, i8 } { i32 0, i8 1, i8 0 }, align 4
@_ZN4llvm8parallel11threadIndexE = thread_local global i32 -1, align 4

; Function Attrs: mustprogress nounwind uwtable
define linkonce_odr hidden void @_ZNSt12__mutex_baseC2Ev(ptr noundef nonnull align 8 dereferenceable(40) %0) unnamed_addr #0 comdat align 2 {
  %2 = alloca ptr, align 8
  store ptr %0, ptr %2, align 8
  %3 = load ptr, ptr %2, align 8
  %4 = getelementptr inbounds nuw %"class.std::__mutex_base", ptr %3, i32 0, i32 0
  call void @llvm.memset.p0.i64(ptr align 8 %4, i8 0, i64 40, i1 false)
  %5 = getelementptr inbounds nuw %struct.__pthread_mutex_s, ptr %4, i32 0, i32 4
  store i32 0, ptr %5, align 8
  ret void
}

; Function Attrs: mustprogress nounwind uwtable
define linkonce_odr hidden void @_ZNSt5mutexC2Ev(ptr noundef nonnull align 8 dereferenceable(40) %0) unnamed_addr #0 comdat align 2 {
  %2 = alloca ptr, align 8
  store ptr %0, ptr %2, align 8
  %3 = load ptr, ptr %2, align 8
  call void @_ZNSt12__mutex_baseC2Ev(ptr noundef nonnull align 8 dereferenceable(40) %3) #2
  ret void
}

; Function Attrs: mustprogress nounwind uwtable
define linkonce_odr hidden void @_ZN4llvm8parallel6detail5LatchC2Ej(ptr noundef nonnull align 8 dereferenceable(96) %0, i32 noundef %1) unnamed_addr #0 comdat align 2 {
  %3 = alloca ptr, align 8
  %4 = alloca i32, align 4
  store ptr %0, ptr %3, align 8
  store i32 %1, ptr %4, align 4
  %5 = load ptr, ptr %3, align 8
  %6 = getelementptr inbounds nuw %"class.llvm::parallel::detail::Latch", ptr %5, i32 0, i32 0
  %7 = load i32, ptr %4, align 4
  store i32 %7, ptr %6, align 8
  %8 = getelementptr inbounds nuw %"class.llvm::parallel::detail::Latch", ptr %5, i32 0, i32 1
  call void @_ZNSt5mutexC2Ev(ptr noundef nonnull align 8 dereferenceable(40) %8) #2
  %9 = getelementptr inbounds nuw %"class.llvm::parallel::detail::Latch", ptr %5, i32 0, i32 2
  call void @_ZNSt18condition_variableC1Ev(ptr noundef nonnull align 8 dereferenceable(48) %9) #2
  ret void
}

; Function Attrs: mustprogress nounwind uwtable
define dso_local void @_ZN4llvm8parallel9TaskGroupC2Ev(ptr noundef nonnull align 8 dereferenceable(97) %0) unnamed_addr #0 align 2 {
  %2 = alloca ptr, align 8
  store ptr %0, ptr %2, align 8
  %3 = load ptr, ptr %2, align 8
  %4 = getelementptr inbounds nuw %"class.llvm::parallel::TaskGroup", ptr %3, i32 0, i32 0
  call void @_ZN4llvm8parallel6detail5LatchC2Ej(ptr noundef nonnull align 8 dereferenceable(96) %4, i32 noundef 0)
  %5 = getelementptr inbounds nuw %"class.llvm::parallel::TaskGroup", ptr %3, i32 0, i32 1
  %6 = load i32, ptr @_ZN4llvm8parallel8strategyE, align 4
  %7 = icmp ne i32 %6, 1
  br i1 %7, label %8, label %12

8:                                                ; preds = %1
  %9 = call align 4 ptr @llvm.threadlocal.address.p0(ptr align 4 @_ZN4llvm8parallel11threadIndexE)
  %10 = load i32, ptr %9, align 4
  %11 = icmp eq i32 %10, -1
  br label %12

12:                                               ; preds = %8, %1
  %13 = phi i1 [ false, %1 ], [ %11, %8 ]
  %14 = zext i1 %13 to i8
  store i8 %14, ptr %5, align 8
  ret void
}