; Function Attrs: mustprogress nounwind uwtable
define dso_local void @_ZN4llvm8parallel9TaskGroupC2Ev(ptr noundef nonnull align 8 dereferenceable(97) %0) unnamed_addr #0 align 2 {
  store i32 0, ptr %0, align 8
  %2 = getelementptr inbounds nuw i8, ptr %0, i64 8
  tail call void @llvm.memset.p0.i64(ptr noundef nonnull align 8 dereferenceable(40) %2, i8 0, i64 40, i1 false)
  %3 = getelementptr inbounds nuw i8, ptr %0, i64 48
  tail call void @_ZNSt18condition_variableC1Ev(ptr noundef nonnull align 8 dereferenceable(48) %3) #18
  %4 = getelementptr inbounds nuw i8, ptr %0, i64 96
  %5 = load i32, ptr @_ZN4llvm8parallel8strategyE, align 4
  %6 = icmp ne i32 %5, 1
  %7 = tail call align 4 ptr @llvm.threadlocal.address.p0(ptr align 4 @_ZN4llvm8parallel11threadIndexE)
  %8 = load i32, ptr %7, align 4
  %9 = icmp eq i32 %8, -1
  %10 = select i1 %6, i1 %9, i1 false
  %11 = zext i1 %10 to i8
  store i8 %11, ptr %4, align 8
  ret void
}